Certificate:
    Data:
        Version: 1 (0x0)
        Serial Number: 1 (0x1)
        Signature Algorithm: ecdsa-with-SHA256
        Issuer: C=KR, ST=daejeon, L=Daejeon-City, O=Hanbat-National-Univ., OU=Information and Communication Eng., CN=Cert-CA
        Validity
            Not Before: Sep  2 00:34:24 2021 GMT
            Not After : Sep  2 00:34:24 2022 GMT
        Subject: C=KR, ST=Some-State, L=Daejeon-City, O=Hanbat-National-Univ., OU=Information and Communication Eng., CN=Cert-Server
        Subject Public Key Info:
            Public Key Algorithm: id-ecPublicKey
                Public-Key: (256 bit)
                pub:
                    04:fc:a3:bb:29:3d:aa:00:7d:a8:af:9b:44:76:12:
                    fa:b5:c9:d2:d7:7c:04:ed:4b:dc:b8:53:80:f0:44:
                    da:8d:5e:b6:c3:dc:34:d3:43:96:23:e6:88:ce:66:
                    7e:b4:e3:7b:8f:62:de:3e:0a:a6:22:f9:65:2e:a2:
                    23:e5:2c:a4:4b
                ASN1 OID: prime256v1
                NIST CURVE: P-256
    Signature Algorithm: ecdsa-with-SHA256
         30:46:02:21:00:89:24:40:ea:30:a1:3e:a1:2b:26:04:cc:09:
         a4:00:14:8b:32:7a:ad:f4:f3:f6:fc:82:3c:33:54:79:af:62:
         c0:02:21:00:da:4e:35:f1:59:ce:e2:f8:ed:9a:90:9e:2f:57:
         e7:56:db:21:92:89:d5:fe:17:43:72:57:a2:2e:ca:88:12:3d
-----BEGIN CERTIFICATE-----
MIICHDCCAcECAQEwCgYIKoZIzj0EAwIwgZUxCzAJBgNVBAYTAktSMRAwDgYDVQQI
DAdkYWVqZW9uMRUwEwYDVQQHDAxEYWVqZW9uLUNpdHkxHjAcBgNVBAoMFUhhbmJh
dC1OYXRpb25hbC1Vbml2LjErMCkGA1UECwwiSW5mb3JtYXRpb24gYW5kIENvbW11
bmljYXRpb24gRW5nLjEQMA4GA1UEAwwHQ2VydC1DQTAeFw0yMTA5MDIwMDM0MjRa
Fw0yMjA5MDIwMDM0MjRaMIGcMQswCQYDVQQGEwJLUjETMBEGA1UECAwKU29tZS1T
dGF0ZTEVMBMGA1UEBwwMRGFlamVvbi1DaXR5MR4wHAYDVQQKDBVIYW5iYXQtTmF0
aW9uYWwtVW5pdi4xKzApBgNVBAsMIkluZm9ybWF0aW9uIGFuZCBDb21tdW5pY2F0
aW9uIEVuZy4xFDASBgNVBAMMC0NlcnQtU2VydmVyMFkwEwYHKoZIzj0CAQYIKoZI
zj0DAQcDQgAE/KO7KT2qAH2or5tEdhL6tcnS13wE7UvcuFOA8ETajV62w9w000OW
I+aIzmZ+tON7j2LePgqmIvllLqIj5SykSzAKBggqhkjOPQQDAgNJADBGAiEAiSRA
6jChPqErJgTMCaQAFIsyeq308/b8gjwzVHmvYsACIQDaTjXxWc7i+O2akJ4vV+dW
2yGSidX+F0NyV6IuyogSPQ==
-----END CERTIFICATE-----
