Certificate:
    Data:
        Version: 3 (0x2)
        Serial Number: 2 (0x2)
        Signature Algorithm: ecdsa-with-SHA256
        Issuer: C=KR, L=Daejeon, O=Hanbat National University, OU=Information and Communication Engineering, CN=<CA Cert for ICE>
        Validity
            Not Before: Nov 12 09:12:34 2022 GMT
            Not After : Nov  9 09:12:34 2032 GMT
        Subject: C=KR, L=Daejeon, O=Hanbat National University, OU=Information and Communication Engineering, CN=<Client Cert for ICE>
        Subject Public Key Info:
            Public Key Algorithm: id-ecPublicKey
                Public-Key: (256 bit)
                pub:
                    04:04:52:25:81:b4:ec:e6:c2:35:70:cb:5a:57:24:
                    8f:b6:5f:64:0c:3f:6d:76:12:fb:af:67:f5:cf:e0:
                    91:ec:ca:0d:df:01:30:87:b4:5f:5b:0a:19:91:a9:
                    28:66:57:fe:1f:2c:9b:ea:1d:93:f5:4b:90:ad:47:
                    c7:0e:5c:f8:21
                ASN1 OID: prime256v1
                NIST CURVE: P-256
        X509v3 extensions:
            X509v3 Basic Constraints: 
                CA:FALSE
            X509v3 Subject Key Identifier: 
                24:F6:BE:26:6C:9B:C5:55:B8:EF:75:88:16:6F:3A:F3:F1:6F:01:D8
            X509v3 Authority Key Identifier: 
                11:8B:6B:3B:C6:9E:DA:D1:E6:E6:4D:7A:10:09:C5:92:79:F3:AE:F8
    Signature Algorithm: ecdsa-with-SHA256
    Signature Value:
        30:45:02:20:6b:7d:a0:07:c3:5f:48:11:be:a3:b5:75:54:7d:
        a2:3a:1b:2c:9a:bc:3b:9d:92:fa:95:b3:66:b5:0b:68:9d:4e:
        02:21:00:b4:4d:d9:ac:d4:e4:f4:d3:c7:0b:16:4d:f1:96:13:
        46:a9:cb:cb:c1:68:4e:14:d4:fe:f5:e1:a5:4a:3b:d1:4d
-----BEGIN CERTIFICATE-----
MIICajCCAhCgAwIBAgIBAjAKBggqhkjOPQQDAjCBlDELMAkGA1UEBhMCS1IxEDAO
BgNVBAcMB0RhZWplb24xIzAhBgNVBAoMGkhhbmJhdCBOYXRpb25hbCBVbml2ZXJz
aXR5MTIwMAYDVQQLDClJbmZvcm1hdGlvbiBhbmQgQ29tbXVuaWNhdGlvbiBFbmdp
bmVlcmluZzEaMBgGA1UEAwwRPENBIENlcnQgZm9yIElDRT4wHhcNMjIxMTEyMDkx
MjM0WhcNMzIxMTA5MDkxMjM0WjCBmDELMAkGA1UEBhMCS1IxEDAOBgNVBAcMB0Rh
ZWplb24xIzAhBgNVBAoMGkhhbmJhdCBOYXRpb25hbCBVbml2ZXJzaXR5MTIwMAYD
VQQLDClJbmZvcm1hdGlvbiBhbmQgQ29tbXVuaWNhdGlvbiBFbmdpbmVlcmluZzEe
MBwGA1UEAwwVPENsaWVudCBDZXJ0IGZvciBJQ0U+MFkwEwYHKoZIzj0CAQYIKoZI
zj0DAQcDQgAEBFIlgbTs5sI1cMtaVySPtl9kDD9tdhL7r2f1z+CR7MoN3wEwh7Rf
WwoZkakoZlf+Hyyb6h2T9UuQrUfHDlz4IaNNMEswCQYDVR0TBAIwADAdBgNVHQ4E
FgQUJPa+JmybxVW473WIFm868/FvAdgwHwYDVR0jBBgwFoAUEYtrO8ae2tHm5k16
EAnFknnzrvgwCgYIKoZIzj0EAwIDSAAwRQIga32gB8NfSBG+o7V1VH2iOhssmrw7
nZL6lbNmtQtonU4CIQC0Tdms1OT008cLFk3xlhNGqcvLwWhOFNT+9eGlSjvRTQ==
-----END CERTIFICATE-----
