Certificate:
    Data:
        Version: 1 (0x0)
        Serial Number: 2 (0x2)
        Signature Algorithm: ecdsa-with-SHA256
        Issuer: C=KR, ST=daejeon, L=Daejeon-City, O=Hanbat-National-Univ., OU=Information and Communication Eng., CN=Cert-CA
        Validity
            Not Before: Sep  2 00:47:37 2021 GMT
            Not After : Sep  2 00:47:37 2022 GMT
        Subject: C=KR, ST=Some-State, L=Daejeon-City, O=Hanbat-National-Univ., OU=Information and Communication Eng., CN=Cert-Client
        Subject Public Key Info:
            Public Key Algorithm: id-ecPublicKey
                Public-Key: (256 bit)
                pub:
                    04:17:00:94:cd:c4:21:dc:ba:d7:8c:0d:a2:2e:8d:
                    ae:fc:e5:52:80:3d:21:da:96:18:44:6a:5d:8c:24:
                    7f:46:9c:4f:1b:6b:d9:5d:29:24:84:86:7e:00:7e:
                    e3:e3:4b:3f:00:91:c4:79:eb:8c:fd:bd:0f:5a:25:
                    5f:0e:74:3b:ca
                ASN1 OID: prime256v1
                NIST CURVE: P-256
    Signature Algorithm: ecdsa-with-SHA256
         30:44:02:20:79:e7:3d:84:4d:15:db:6e:51:17:cb:d2:3a:30:
         33:61:e8:b7:0c:0c:0f:79:8f:1b:1c:74:fb:bd:5b:7b:db:ea:
         02:20:1c:57:b8:8a:f0:94:48:ff:8d:49:82:7b:4a:68:65:ce:
         42:9d:6d:fc:27:bc:15:48:70:df:2f:da:fa:31:4e:2b
-----BEGIN CERTIFICATE-----
MIICGjCCAcECAQIwCgYIKoZIzj0EAwIwgZUxCzAJBgNVBAYTAktSMRAwDgYDVQQI
DAdkYWVqZW9uMRUwEwYDVQQHDAxEYWVqZW9uLUNpdHkxHjAcBgNVBAoMFUhhbmJh
dC1OYXRpb25hbC1Vbml2LjErMCkGA1UECwwiSW5mb3JtYXRpb24gYW5kIENvbW11
bmljYXRpb24gRW5nLjEQMA4GA1UEAwwHQ2VydC1DQTAeFw0yMTA5MDIwMDQ3Mzda
Fw0yMjA5MDIwMDQ3MzdaMIGcMQswCQYDVQQGEwJLUjETMBEGA1UECAwKU29tZS1T
dGF0ZTEVMBMGA1UEBwwMRGFlamVvbi1DaXR5MR4wHAYDVQQKDBVIYW5iYXQtTmF0
aW9uYWwtVW5pdi4xKzApBgNVBAsMIkluZm9ybWF0aW9uIGFuZCBDb21tdW5pY2F0
aW9uIEVuZy4xFDASBgNVBAMMC0NlcnQtQ2xpZW50MFkwEwYHKoZIzj0CAQYIKoZI
zj0DAQcDQgAEFwCUzcQh3LrXjA2iLo2u/OVSgD0h2pYYRGpdjCR/RpxPG2vZXSkk
hIZ+AH7j40s/AJHEeeuM/b0PWiVfDnQ7yjAKBggqhkjOPQQDAgNHADBEAiB55z2E
TRXbblEXy9I6MDNh6LcMDA95jxscdPu9W3vb6gIgHFe4ivCUSP+NSYJ7SmhlzkKd
bfwnvBVIcN8v2voxTis=
-----END CERTIFICATE-----
