Certificate:
    Data:
        Version: 3 (0x2)
        Serial Number: 1 (0x1)
        Signature Algorithm: ecdsa-with-SHA256
        Issuer: C=KR, L=Daejeon, O=Hanbat National University, OU=Information and Communication Engineering, CN=<CA Cert for ICE>
        Validity
            Not Before: Nov 12 09:11:03 2022 GMT
            Not After : Nov  9 09:11:03 2032 GMT
        Subject: C=KR, L=Daejeon, O=Hanbat National University, OU=Information and Communication Engineering, CN=<Server Cert for ICE>
        Subject Public Key Info:
            Public Key Algorithm: id-ecPublicKey
                Public-Key: (256 bit)
                pub:
                    04:40:22:19:5e:ae:02:be:0f:cd:f4:8b:44:7f:de:
                    8f:72:af:95:ad:af:69:c5:e8:9e:eb:54:e8:ca:de:
                    f1:77:c0:90:21:cb:16:95:a6:cb:11:71:7a:1f:bc:
                    a0:c4:6d:58:ab:0b:38:21:b9:a4:24:f2:99:e2:ea:
                    8b:2d:b1:d9:44
                ASN1 OID: prime256v1
                NIST CURVE: P-256
        X509v3 extensions:
            X509v3 Basic Constraints: 
                CA:FALSE
            X509v3 Subject Key Identifier: 
                52:F3:C0:83:A0:53:C2:00:11:89:39:63:7D:5B:4C:54:56:26:BE:3E
            X509v3 Authority Key Identifier: 
                11:8B:6B:3B:C6:9E:DA:D1:E6:E6:4D:7A:10:09:C5:92:79:F3:AE:F8
    Signature Algorithm: ecdsa-with-SHA256
    Signature Value:
        30:45:02:21:00:cd:38:b6:0e:9e:d0:a7:90:d3:73:75:78:84:
        c4:3b:3b:57:73:7f:0a:e5:6e:c6:b9:8e:a6:83:0b:a9:d8:af:
        61:02:20:25:bc:8a:6c:7a:98:7e:3d:33:7b:44:08:18:1a:43:
        02:4b:2c:27:c5:4d:01:33:ff:a5:48:62:bd:0f:01:c7:37
-----BEGIN CERTIFICATE-----
MIICajCCAhCgAwIBAgIBATAKBggqhkjOPQQDAjCBlDELMAkGA1UEBhMCS1IxEDAO
BgNVBAcMB0RhZWplb24xIzAhBgNVBAoMGkhhbmJhdCBOYXRpb25hbCBVbml2ZXJz
aXR5MTIwMAYDVQQLDClJbmZvcm1hdGlvbiBhbmQgQ29tbXVuaWNhdGlvbiBFbmdp
bmVlcmluZzEaMBgGA1UEAwwRPENBIENlcnQgZm9yIElDRT4wHhcNMjIxMTEyMDkx
MTAzWhcNMzIxMTA5MDkxMTAzWjCBmDELMAkGA1UEBhMCS1IxEDAOBgNVBAcMB0Rh
ZWplb24xIzAhBgNVBAoMGkhhbmJhdCBOYXRpb25hbCBVbml2ZXJzaXR5MTIwMAYD
VQQLDClJbmZvcm1hdGlvbiBhbmQgQ29tbXVuaWNhdGlvbiBFbmdpbmVlcmluZzEe
MBwGA1UEAwwVPFNlcnZlciBDZXJ0IGZvciBJQ0U+MFkwEwYHKoZIzj0CAQYIKoZI
zj0DAQcDQgAEQCIZXq4Cvg/N9ItEf96Pcq+Vra9pxeie61Toyt7xd8CQIcsWlabL
EXF6H7ygxG1Yqws4IbmkJPKZ4uqLLbHZRKNNMEswCQYDVR0TBAIwADAdBgNVHQ4E
FgQUUvPAg6BTwgARiTljfVtMVFYmvj4wHwYDVR0jBBgwFoAUEYtrO8ae2tHm5k16
EAnFknnzrvgwCgYIKoZIzj0EAwIDSAAwRQIhAM04tg6e0KeQ03N1eITEOztXc38K
5W7GuY6mgwup2K9hAiAlvIpseph+PTN7RAgYGkMCSywnxU0BM/+lSGK9DwHHNw==
-----END CERTIFICATE-----
